target datalayout = "e-m:e-p270:32:32-p271:32:32-p272:64:64-i64:64-i128:128-f80:128-n8:16:32:64-S128"
target triple = "x86_64-pc-linux-gnu"

%"struct.FieldInformation::Position" = type { i32, i32 }
%class.FieldInformation = type { %class.QObject, %class.IDataPrintable, ptr, ptr }
%class.QObject = type { ptr, %class.QScopedPointer }
%class.QScopedPointer = type { ptr }
%class.IDataPrintable = type { ptr }
%struct.field_info = type { ptr, i32, i32, i32, i32, i32, i32, ptr, ptr, ptr, i32, i32 }

@__const._ZNK16FieldInformation8appendixEv.pos = private unnamed_addr constant %"struct.FieldInformation::Position" { i32 -1, i32 -1 }, align 4

; Function Attrs: mustprogress nounwind uwtable
define i64 @_ZNK16FieldInformation8appendixEv(ptr noundef nonnull align 8 dereferenceable(40) %0) #2 align 2 {
  %2 = alloca %"struct.FieldInformation::Position", align 4
  %3 = alloca ptr, align 8
  store ptr %0, ptr %3, align 8
  %4 = load ptr, ptr %3, align 8
  call void @llvm.memcpy.p0.p0.i64(ptr align 4 %2, ptr align 4 @__const._ZNK16FieldInformation8appendixEv.pos, i64 8, i1 false)
  %5 = getelementptr inbounds %class.FieldInformation, ptr %4, i32 0, i32 2
  %6 = load ptr, ptr %5, align 8
  %7 = icmp ne ptr %6, null
  br i1 %7, label %8, label %25

8:                                                ; preds = %1
  %9 = getelementptr inbounds %class.FieldInformation, ptr %4, i32 0, i32 2
  %10 = load ptr, ptr %9, align 8
  %11 = getelementptr inbounds %struct.field_info, ptr %10, i32 0, i32 8
  %12 = load ptr, ptr %11, align 8
  %13 = icmp ne ptr %12, null
  br i1 %13, label %14, label %25

14:                                               ; preds = %8
  %15 = getelementptr inbounds %class.FieldInformation, ptr %4, i32 0, i32 2
  %16 = load ptr, ptr %15, align 8
  %17 = getelementptr inbounds %struct.field_info, ptr %16, i32 0, i32 3
  %18 = load i32, ptr %17, align 8
  %19 = getelementptr inbounds %"struct.FieldInformation::Position", ptr %2, i32 0, i32 0
  store i32 %18, ptr %19, align 4
  %20 = getelementptr inbounds %class.FieldInformation, ptr %4, i32 0, i32 2
  %21 = load ptr, ptr %20, align 8
  %22 = getelementptr inbounds %struct.field_info, ptr %21, i32 0, i32 4
  %23 = load i32, ptr %22, align 4
  %24 = getelementptr inbounds %"struct.FieldInformation::Position", ptr %2, i32 0, i32 1
  store i32 %23, ptr %24, align 4
  br label %25

25:                                               ; preds = %14, %8, %1
  %26 = load i64, ptr %2, align 4
  ret i64 %26
}