; Function Attrs: mustprogress nofree norecurse nosync nounwind willreturn memory(read, inaccessiblemem: none) uwtable
define i64 @_ZNK16FieldInformation8appendixEv(ptr nocapture noundef nonnull readonly align 8 dereferenceable(40) %0) local_unnamed_addr #4 align 2 {
  %2 = getelementptr inbounds i8, ptr %0, i64 24
  %3 = load ptr, ptr %2, align 8
  %.not = icmp eq ptr %3, null
  br i1 %.not, label %15, label %4

4:                                                ; preds = %1
  %5 = getelementptr inbounds i8, ptr %3, i64 40
  %6 = load ptr, ptr %5, align 8
  %.not1 = icmp eq ptr %6, null
  br i1 %.not1, label %15, label %7

7:                                                ; preds = %4
  %8 = getelementptr inbounds i8, ptr %3, i64 16
  %9 = load i32, ptr %8, align 8
  %10 = getelementptr inbounds i8, ptr %3, i64 20
  %11 = load i32, ptr %10, align 4
  %12 = zext i32 %11 to i64
  %13 = shl nuw i64 %12, 32
  %14 = zext i32 %9 to i64
  br label %15

15:                                               ; preds = %7, %4, %1
  %.sroa.0.0 = phi i64 [ %14, %7 ], [ 4294967295, %4 ], [ 4294967295, %1 ]
  %.sroa.3.0 = phi i64 [ %13, %7 ], [ -4294967296, %4 ], [ -4294967296, %1 ]
  %.sroa.0.0.insert.insert = or disjoint i64 %.sroa.3.0, %.sroa.0.0
  ret i64 %.sroa.0.0.insert.insert
}